target datalayout = "e-m:e-p270:32:32-p271:32:32-p272:64:64-i64:64-i128:128-f80:128-n8:16:32:64-S128"
target triple = "x86_64-pc-linux-gnu"

%struct.auth_credential_t = type { i32, i32, ptr, i8, %struct.in_addr, i8, i32, i32, ptr, i32 }
%struct.in_addr = type { i32 }

@.str.8 = private unnamed_addr constant [13 x i8] c"auth_munge.c\00", align 1
@__func__.auth_p_unpack = private unnamed_addr constant [14 x i8] c"auth_p_unpack\00", align 1
@.str.14 = private unnamed_addr constant [32 x i8] c"%s: unknown protocol version %u\00", align 1

; Function Attrs: nounwind uwtable
define dso_local void @auth_p_destroy(ptr noundef %0) #0 {
  %2 = alloca ptr, align 8
  store ptr %0, ptr %2, align 8
  %3 = load ptr, ptr %2, align 8
  %4 = icmp ne ptr %3, null
  br i1 %4, label %6, label %5

5:                                                ; preds = %1
  br label %34

6:                                                ; preds = %1
  %7 = load ptr, ptr %2, align 8
  %8 = getelementptr inbounds nuw %struct.auth_credential_t, ptr %7, i32 0, i32 3
  %9 = load i8, ptr %8, align 8, !range !8, !noundef !9
  %10 = trunc i8 %9 to i1
  br i1 %10, label %11, label %14

11:                                               ; preds = %6
  %12 = load ptr, ptr %2, align 8
  %13 = getelementptr inbounds nuw %struct.auth_credential_t, ptr %12, i32 0, i32 2
  call void @slurm_xfree(ptr noundef %13)
  br label %24

14:                                               ; preds = %6
  %15 = load ptr, ptr %2, align 8
  %16 = getelementptr inbounds nuw %struct.auth_credential_t, ptr %15, i32 0, i32 2
  %17 = load ptr, ptr %16, align 8
  %18 = icmp ne ptr %17, null
  br i1 %18, label %19, label %23

19:                                               ; preds = %14
  %20 = load ptr, ptr %2, align 8
  %21 = getelementptr inbounds nuw %struct.auth_credential_t, ptr %20, i32 0, i32 2
  %22 = load ptr, ptr %21, align 8
  call void @free(ptr noundef %22) #9
  br label %23

23:                                               ; preds = %19, %14
  br label %24

24:                                               ; preds = %23, %11
  %25 = load ptr, ptr %2, align 8
  %26 = getelementptr inbounds nuw %struct.auth_credential_t, ptr %25, i32 0, i32 8
  %27 = load ptr, ptr %26, align 8
  %28 = icmp ne ptr %27, null
  br i1 %28, label %29, label %33

29:                                               ; preds = %24
  %30 = load ptr, ptr %2, align 8
  %31 = getelementptr inbounds nuw %struct.auth_credential_t, ptr %30, i32 0, i32 8
  %32 = load ptr, ptr %31, align 8
  call void @free(ptr noundef %32) #9
  br label %33

33:                                               ; preds = %29, %24
  call void @slurm_xfree(ptr noundef %2)
  br label %34

34:                                               ; preds = %33, %5
  ret void
}

; Function Attrs: nounwind uwtable
define dso_local ptr @auth_p_unpack(ptr noundef %0, i16 noundef zeroext %1) #0 {
  %3 = alloca ptr, align 8
  %4 = alloca ptr, align 8
  %5 = alloca i16, align 2
  %6 = alloca ptr, align 8
  %7 = alloca i32, align 4
  %8 = alloca i32, align 4
  store ptr %0, ptr %4, align 8
  store i16 %1, ptr %5, align 2
  call void @llvm.lifetime.start.p0(i64 8, ptr %6) #9
  store ptr null, ptr %6, align 8
  %9 = load ptr, ptr %4, align 8
  %10 = icmp ne ptr %9, null
  br i1 %10, label %13, label %11

11:                                               ; preds = %2
  %12 = call ptr @__errno_location() #11
  store i32 6004, ptr %12, align 4
  store ptr null, ptr %3, align 8
  store i32 1, ptr %7, align 4
  br label %47

13:                                               ; preds = %2
  %14 = load i16, ptr %5, align 2
  %15 = zext i16 %14 to i32
  %16 = icmp sge i32 %15, 10240
  br i1 %16, label %17, label %38

17:                                               ; preds = %13
  %18 = call ptr @slurm_xcalloc(i64 noundef 1, i64 noundef 56, i1 noundef zeroext true, i1 noundef zeroext false, ptr noundef @.str.8, i32 noundef 477, ptr noundef @__func__.auth_p_unpack)
  store ptr %18, ptr %6, align 8
  %19 = load ptr, ptr %6, align 8
  %20 = getelementptr inbounds nuw %struct.auth_credential_t, ptr %19, i32 0, i32 1
  store i32 65261, ptr %20, align 4
  %21 = load ptr, ptr %6, align 8
  %22 = getelementptr inbounds nuw %struct.auth_credential_t, ptr %21, i32 0, i32 5
  store i8 0, ptr %22, align 8
  %23 = load ptr, ptr %6, align 8
  %24 = getelementptr inbounds nuw %struct.auth_credential_t, ptr %23, i32 0, i32 3
  store i8 1, ptr %24, align 8
  br label %25

25:                                               ; preds = %17
  call void @llvm.lifetime.start.p0(i64 4, ptr %8) #9
  %26 = load ptr, ptr %6, align 8
  %27 = getelementptr inbounds nuw %struct.auth_credential_t, ptr %26, i32 0, i32 2
  %28 = load ptr, ptr %4, align 8
  %29 = call i32 @slurm_unpackstr_xmalloc_chooser(ptr noundef %27, ptr noundef %8, ptr noundef %28)
  %30 = icmp ne i32 %29, 0
  br i1 %30, label %31, label %32

31:                                               ; preds = %25
  store i32 4, ptr %7, align 4
  br label %33

32:                                               ; preds = %25
  store i32 0, ptr %7, align 4
  br label %33

33:                                               ; preds = %31, %32
  call void @llvm.lifetime.end.p0(i64 4, ptr %8) #9
  %34 = load i32, ptr %7, align 4
  switch i32 %34, label %47 [
    i32 0, label %35
    i32 4, label %44
  ]

35:                                               ; preds = %33
  br label %36

36:                                               ; preds = %35
  br label %37

37:                                               ; preds = %36
  br label %42

38:                                               ; preds = %13
  %39 = load i16, ptr %5, align 2
  %40 = zext i16 %39 to i32
  %41 = call i32 (ptr, ...) @slurm_error(ptr noundef @.str.14, ptr noundef @__func__.auth_p_unpack, i32 noundef %40)
  br label %44

42:                                               ; preds = %37
  %43 = load ptr, ptr %6, align 8
  store ptr %43, ptr %3, align 8
  store i32 1, ptr %7, align 4
  br label %47

44:                                               ; preds = %33, %38
  %45 = call ptr @__errno_location() #11
  store i32 6007, ptr %45, align 4
  %46 = load ptr, ptr %6, align 8
  call void @auth_p_destroy(ptr noundef %46)
  store ptr null, ptr %3, align 8
  store i32 1, ptr %7, align 4
  br label %47

47:                                               ; preds = %44, %42, %33, %11
  call void @llvm.lifetime.end.p0(i64 8, ptr %6) #9
  %48 = load ptr, ptr %3, align 8
  ret ptr %48
}