; Function Attrs: nounwind uwtable
define dso_local ptr @auth_p_unpack(ptr noundef %0, i16 noundef zeroext %1) local_unnamed_addr #0 {
  %3 = alloca ptr, align 8
  %4 = alloca i32, align 4
  %.not = icmp eq ptr %0, null
  br i1 %.not, label %5, label %7

5:                                                ; preds = %2
  %6 = tail call ptr @__errno_location() #14
  store i32 6004, ptr %6, align 4
  br label %35

7:                                                ; preds = %2
  %8 = icmp ugt i16 %1, 10239
  br i1 %8, label %9, label %16

9:                                                ; preds = %7
  %10 = tail call ptr @slurm_xcalloc(i64 noundef 1, i64 noundef 56, i1 noundef zeroext true, i1 noundef zeroext false, ptr noundef nonnull @.str.8, i32 noundef 477, ptr noundef nonnull @__func__.auth_p_unpack) #13
  %11 = getelementptr inbounds nuw i8, ptr %10, i64 4
  store i32 65261, ptr %11, align 4
  %12 = getelementptr inbounds nuw i8, ptr %10, i64 24
  store i8 0, ptr %12, align 8
  %13 = getelementptr inbounds nuw i8, ptr %10, i64 16
  store i8 1, ptr %13, align 8
  call void @llvm.lifetime.start.p0(i64 4, ptr nonnull %4) #13
  %14 = getelementptr inbounds nuw i8, ptr %10, i64 8
  %15 = call i32 @slurm_unpackstr_xmalloc_chooser(ptr noundef nonnull %14, ptr noundef nonnull %4, ptr noundef nonnull %0) #13
  %.not15 = icmp eq i32 %15, 0
  call void @llvm.lifetime.end.p0(i64 4, ptr nonnull %4) #13
  br i1 %.not15, label %35, label %19

16:                                               ; preds = %7
  %17 = zext nneg i16 %1 to i32
  %18 = tail call i32 (ptr, ...) @slurm_error(ptr noundef nonnull @.str.14, ptr noundef nonnull @__func__.auth_p_unpack, i32 noundef %17) #13
  br label %19

19:                                               ; preds = %9, %16
  %.011 = phi ptr [ %10, %9 ], [ null, %16 ]
  %20 = tail call ptr @__errno_location() #14
  store i32 6007, ptr %20, align 4
  call void @llvm.lifetime.start.p0(i64 8, ptr nonnull %3)
  store ptr %.011, ptr %3, align 8
  %.not.i = icmp eq ptr %.011, null
  br i1 %.not.i, label %auth_p_destroy.exit, label %21

21:                                               ; preds = %19
  %22 = getelementptr inbounds nuw i8, ptr %.011, i64 16
  %23 = load i8, ptr %22, align 8, !range !8, !noundef !9
  %24 = trunc nuw i8 %23 to i1
  %25 = getelementptr inbounds nuw i8, ptr %.011, i64 8
  br i1 %24, label %26, label %27

26:                                               ; preds = %21
  call void @slurm_xfree(ptr noundef nonnull %25) #13
  br label %30

27:                                               ; preds = %21
  %28 = load ptr, ptr %25, align 8
  %.not3.i = icmp eq ptr %28, null
  br i1 %.not3.i, label %30, label %29

29:                                               ; preds = %27
  call void @free(ptr noundef nonnull %28) #13
  br label %30

30:                                               ; preds = %29, %27, %26
  %31 = getelementptr inbounds nuw i8, ptr %.011, i64 40
  %32 = load ptr, ptr %31, align 8
  %.not4.i = icmp eq ptr %32, null
  br i1 %.not4.i, label %34, label %33

33:                                               ; preds = %30
  call void @free(ptr noundef nonnull %32) #13
  br label %34

34:                                               ; preds = %33, %30
  call void @slurm_xfree(ptr noundef nonnull %3) #13
  br label %auth_p_destroy.exit

auth_p_destroy.exit:                              ; preds = %19, %34
  call void @llvm.lifetime.end.p0(i64 8, ptr nonnull %3)
  br label %35

35:                                               ; preds = %9, %auth_p_destroy.exit, %5
  %.012 = phi ptr [ null, %auth_p_destroy.exit ], [ null, %5 ], [ %10, %9 ]
  ret ptr %.012
}